(dp0
S'Captain'
p1
(dp2
S'Shoot'
p3
V2
p4
sS'Shield'
p5
V12
p6
sS'Items'
p7
(lp8
VNeedle Gun
p9
asS'Move'
p10
V5
p11
sS'Experience'
p12
V0
p13
sS'Fight'
p14
V2
p15
sS'Morale'
p16
V4
p17
sS'Skillset'
p18
(lp19
VAim
p20
asS'Cost'
p21
I0
sS'Health'
p22
V12
p23
sS'Specialism'
p24
VMarksman
p25
ssS'Treasury'
p26
I298
sS'Name'
p27
Vtiff
p28
sS'Troops'
p29
(lp30
VCombat Droid
p31
aVAugment Gorilla
p32
aVAugment Gorilla
p33
as.